target datalayout = "e-m:e-p270:32:32-p271:32:32-p272:64:64-i64:64-i128:128-f80:128-n8:16:32:64-S128"
target triple = "x86_64-pc-linux-gnu"

%struct.Gia_Man_t_ = type { ptr, ptr, i32, i32, i32, i32, ptr, ptr, i32, i32, i32, ptr, ptr, %struct.Vec_Int_t_, %struct.Vec_Int_t_, i32, i32, i32, %struct.Vec_Int_t_, ptr, ptr, ptr, i32, i32, i32, i32, ptr, ptr, ptr, ptr, ptr, i32, i32, ptr, i32, ptr, ptr, ptr, ptr, ptr, ptr, ptr, ptr, ptr, ptr, ptr, ptr, ptr, ptr, ptr, ptr, ptr, ptr, %struct.Vec_Int_t_, %struct.Vec_Int_t_, ptr, ptr, ptr, ptr, ptr, ptr, ptr, ptr, ptr, ptr, ptr, ptr, ptr, ptr, ptr, ptr, ptr, ptr, ptr, ptr, ptr, i32, float, float, ptr, ptr, i32, ptr, ptr, ptr, ptr, ptr, ptr, ptr, ptr, ptr, ptr, ptr, ptr, ptr, ptr, ptr, i64, i64, ptr, ptr, i32, i32, i32, i32, i32, i32, i32, i32, i32, i32, i32, i32, ptr, ptr, ptr, ptr, ptr, ptr, ptr, ptr, i32, i32, i32, ptr, i32, i32, ptr, ptr, ptr, ptr, ptr, ptr, i32, i32, ptr, %struct.Vec_Int_t_, %struct.Vec_Int_t_, %struct.Vec_Int_t_, ptr, ptr, ptr, i32, i32, i32, i32, ptr, ptr, ptr, ptr, ptr }
%struct.Vec_Int_t_ = type { i32, i32, ptr }

@.str = private unnamed_addr constant [15 x i8] c"Original AIG:\0A\00", align 1
@.str.1 = private unnamed_addr constant [20 x i8] c"After PI trimming:\0A\00", align 1
@.str.2 = private unnamed_addr constant [31 x i8] c"After PI-2-FF transformation:\0A\00", align 1
@.str.3 = private unnamed_addr constant [26 x i8] c"After min-area retiming:\0A\00", align 1
@.str.4 = private unnamed_addr constant [31 x i8] c"After FF-2-PI transformation:\0A\00", align 1

; Function Attrs: inlinehint nounwind uwtable
define internal i32 @Gia_ManRegNum(ptr noundef %0) #2 {
  %2 = alloca ptr, align 8
  store ptr %0, ptr %2, align 8, !tbaa !3
  %3 = load ptr, ptr %2, align 8, !tbaa !3
  %4 = getelementptr inbounds nuw %struct.Gia_Man_t_, ptr %3, i32 0, i32 2
  %5 = load i32, ptr %4, align 8, !tbaa !48
  ret i32 %5
}

; Function Attrs: nounwind uwtable
define ptr @Abs_RpmPerformOld(ptr noundef %0, i32 noundef %1) #0 {
  %3 = alloca ptr, align 8
  %4 = alloca i32, align 4
  %5 = alloca ptr, align 8
  %6 = alloca ptr, align 8
  %7 = alloca ptr, align 8
  %8 = alloca ptr, align 8
  %9 = alloca i32, align 4
  store ptr %0, ptr %3, align 8, !tbaa !3
  store i32 %1, ptr %4, align 4, !tbaa !33
  call void @llvm.lifetime.start.p0(i64 8, ptr %5) #10
  call void @llvm.lifetime.start.p0(i64 8, ptr %6) #10
  call void @llvm.lifetime.start.p0(i64 8, ptr %7) #10
  call void @llvm.lifetime.start.p0(i64 8, ptr %8) #10
  call void @llvm.lifetime.start.p0(i64 4, ptr %9) #10
  %10 = load ptr, ptr %3, align 8, !tbaa !3
  %11 = call i32 @Gia_ManRegNum(ptr noundef %10)
  store i32 %11, ptr %9, align 4, !tbaa !33
  %12 = load i32, ptr %4, align 4, !tbaa !33
  %13 = icmp ne i32 %12, 0
  br i1 %13, label %14, label %17

14:                                               ; preds = %2
  %15 = call i32 (ptr, ...) @printf(ptr noundef @.str)
  %16 = load ptr, ptr %3, align 8, !tbaa !3
  call void @Gia_ManPrintStats(ptr noundef %16, ptr noundef null)
  br label %17

17:                                               ; preds = %14, %2
  %18 = load ptr, ptr %3, align 8, !tbaa !3
  %19 = call ptr @Gia_ManDupTrimmed(ptr noundef %18, i32 noundef 1, i32 noundef 0, i32 noundef 0, i32 noundef -1)
  store ptr %19, ptr %7, align 8, !tbaa !3
  %20 = load i32, ptr %4, align 4, !tbaa !33
  %21 = icmp ne i32 %20, 0
  br i1 %21, label %22, label %25

22:                                               ; preds = %17
  %23 = call i32 (ptr, ...) @printf(ptr noundef @.str.1)
  %24 = load ptr, ptr %7, align 8, !tbaa !3
  call void @Gia_ManPrintStats(ptr noundef %24, ptr noundef null)
  br label %25

25:                                               ; preds = %22, %17
  %26 = load ptr, ptr %7, align 8, !tbaa !3
  store ptr %26, ptr %8, align 8, !tbaa !3
  %27 = call ptr @Gia_ManDupIn2Ff(ptr noundef %26)
  store ptr %27, ptr %7, align 8, !tbaa !3
  %28 = load ptr, ptr %8, align 8, !tbaa !3
  call void @Gia_ManStop(ptr noundef %28)
  %29 = load i32, ptr %4, align 4, !tbaa !33
  %30 = icmp ne i32 %29, 0
  br i1 %30, label %31, label %34

31:                                               ; preds = %25
  %32 = call i32 (ptr, ...) @printf(ptr noundef @.str.2)
  %33 = load ptr, ptr %7, align 8, !tbaa !3
  call void @Gia_ManPrintStats(ptr noundef %33, ptr noundef null)
  br label %34

34:                                               ; preds = %31, %25
  %35 = load ptr, ptr %7, align 8, !tbaa !3
  %36 = call ptr @Gia_ManToAigSimple(ptr noundef %35)
  store ptr %36, ptr %5, align 8, !tbaa !60
  %37 = load ptr, ptr %7, align 8, !tbaa !3
  call void @Gia_ManStop(ptr noundef %37)
  %38 = load ptr, ptr %5, align 8, !tbaa !60
  store ptr %38, ptr %6, align 8, !tbaa !60
  %39 = call ptr @Saig_ManRetimeMinArea(ptr noundef %38, i32 noundef 10, i32 noundef 0, i32 noundef 0, i32 noundef 1, i32 noundef 0)
  store ptr %39, ptr %5, align 8, !tbaa !60
  %40 = load ptr, ptr %6, align 8, !tbaa !60
  call void @Aig_ManStop(ptr noundef %40)
  %41 = load ptr, ptr %5, align 8, !tbaa !60
  %42 = call ptr @Gia_ManFromAigSimple(ptr noundef %41)
  store ptr %42, ptr %7, align 8, !tbaa !3
  %43 = load ptr, ptr %5, align 8, !tbaa !60
  call void @Aig_ManStop(ptr noundef %43)
  %44 = load i32, ptr %4, align 4, !tbaa !33
  %45 = icmp ne i32 %44, 0
  br i1 %45, label %46, label %49

46:                                               ; preds = %34
  %47 = call i32 (ptr, ...) @printf(ptr noundef @.str.3)
  %48 = load ptr, ptr %7, align 8, !tbaa !3
  call void @Gia_ManPrintStats(ptr noundef %48, ptr noundef null)
  br label %49

49:                                               ; preds = %46, %34
  %50 = load ptr, ptr %7, align 8, !tbaa !3
  store ptr %50, ptr %8, align 8, !tbaa !3
  %51 = load i32, ptr %9, align 4, !tbaa !33
  %52 = call ptr @Gia_ManDupFf2In(ptr noundef %50, i32 noundef %51)
  store ptr %52, ptr %7, align 8, !tbaa !3
  %53 = load ptr, ptr %8, align 8, !tbaa !3
  call void @Gia_ManStop(ptr noundef %53)
  %54 = load i32, ptr %4, align 4, !tbaa !33
  %55 = icmp ne i32 %54, 0
  br i1 %55, label %56, label %59

56:                                               ; preds = %49
  %57 = call i32 (ptr, ...) @printf(ptr noundef @.str.4)
  %58 = load ptr, ptr %7, align 8, !tbaa !3
  call void @Gia_ManPrintStats(ptr noundef %58, ptr noundef null)
  br label %59

59:                                               ; preds = %56, %49
  %60 = load ptr, ptr %7, align 8, !tbaa !3
  call void @llvm.lifetime.end.p0(i64 4, ptr %9) #10
  call void @llvm.lifetime.end.p0(i64 8, ptr %8) #10
  call void @llvm.lifetime.end.p0(i64 8, ptr %7) #10
  call void @llvm.lifetime.end.p0(i64 8, ptr %6) #10
  call void @llvm.lifetime.end.p0(i64 8, ptr %5) #10
  ret ptr %60
}