; Function Attrs: nounwind uwtable
define ptr @Abs_RpmPerformOld(ptr noundef %0, i32 noundef %1) local_unnamed_addr #0 {
  %3 = getelementptr i8, ptr %0, i64 16
  %.val = load i32, ptr %3, align 8, !tbaa !3
  %.not = icmp eq i32 %1, 0
  br i1 %.not, label %.thread, label %5

.thread:                                          ; preds = %2
  %4 = tail call ptr @Gia_ManDupTrimmed(ptr noundef nonnull %0, i32 noundef 1, i32 noundef 0, i32 noundef 0, i32 noundef -1) #14
  br label %7

5:                                                ; preds = %2
  %puts = tail call i32 @puts(ptr nonnull dereferenceable(1) @str)
  tail call void @Gia_ManPrintStats(ptr noundef nonnull %0, ptr noundef null) #14
  %6 = tail call ptr @Gia_ManDupTrimmed(ptr noundef nonnull %0, i32 noundef 1, i32 noundef 0, i32 noundef 0, i32 noundef -1) #14
  %puts23 = tail call i32 @puts(ptr nonnull dereferenceable(1) @str.1)
  tail call void @Gia_ManPrintStats(ptr noundef %6, ptr noundef null) #14
  br label %7

7:                                                ; preds = %.thread, %5
  %8 = phi ptr [ %4, %.thread ], [ %6, %5 ]
  %9 = tail call ptr @Gia_ManDupIn2Ff(ptr noundef %8)
  tail call void @Gia_ManStop(ptr noundef %8) #14
  br i1 %.not, label %11, label %10

10:                                               ; preds = %7
  %puts24 = tail call i32 @puts(ptr nonnull dereferenceable(1) @str.2)
  tail call void @Gia_ManPrintStats(ptr noundef %9, ptr noundef null) #14
  br label %11

11:                                               ; preds = %10, %7
  %12 = tail call ptr @Gia_ManToAigSimple(ptr noundef %9) #14
  tail call void @Gia_ManStop(ptr noundef %9) #14
  %13 = tail call ptr @Saig_ManRetimeMinArea(ptr noundef %12, i32 noundef 10, i32 noundef 0, i32 noundef 0, i32 noundef 1, i32 noundef 0) #14
  tail call void @Aig_ManStop(ptr noundef %12) #14
  %14 = tail call ptr @Gia_ManFromAigSimple(ptr noundef %13) #14
  tail call void @Aig_ManStop(ptr noundef %13) #14
  br i1 %.not, label %16, label %15

15:                                               ; preds = %11
  %puts25 = tail call i32 @puts(ptr nonnull dereferenceable(1) @str.3)
  tail call void @Gia_ManPrintStats(ptr noundef %14, ptr noundef null) #14
  br label %16

16:                                               ; preds = %15, %11
  %17 = tail call ptr @Gia_ManDupFf2In(ptr noundef %14, i32 noundef %.val)
  tail call void @Gia_ManStop(ptr noundef %14) #14
  br i1 %.not, label %19, label %18

18:                                               ; preds = %16
  %puts26 = tail call i32 @puts(ptr nonnull dereferenceable(1) @str.4)
  tail call void @Gia_ManPrintStats(ptr noundef %17, ptr noundef null) #14
  br label %19

19:                                               ; preds = %18, %16
  ret ptr %17
}